target datalayout = "e-m:e-p270:32:32-p271:32:32-p272:64:64-i64:64-i128:128-f80:128-n8:16:32:64-S128"
target triple = "x86_64-pc-linux-gnu"

%"class.lean::mpz" = type { [1 x %struct.__mpz_struct] }
%struct.__mpz_struct = type { i32, i32, ptr }

@_ZN4lean3mpzC1Ev = unnamed_addr alias void (ptr), ptr @_ZN4lean3mpzC2Ev
@_ZN4lean3mpzD1Ev = unnamed_addr alias void (ptr), ptr @_ZN4lean3mpzD2Ev

; Function Attrs: inlinehint mustprogress nounwind willreturn memory(read) uwtable
define available_externally i64 @__gmpz_get_ui(ptr noundef %0) #8 {
  %2 = alloca ptr, align 8
  %3 = alloca ptr, align 8
  %4 = alloca i64, align 8
  %5 = alloca i64, align 8
  store ptr %0, ptr %2, align 8, !tbaa !8
  call void @llvm.lifetime.start.p0(i64 8, ptr %3) #17
  %6 = load ptr, ptr %2, align 8, !tbaa !8
  %7 = getelementptr inbounds nuw %struct.__mpz_struct, ptr %6, i32 0, i32 2
  %8 = load ptr, ptr %7, align 8, !tbaa !18
  store ptr %8, ptr %3, align 8, !tbaa !19
  call void @llvm.lifetime.start.p0(i64 8, ptr %4) #17
  %9 = load ptr, ptr %2, align 8, !tbaa !8
  %10 = getelementptr inbounds nuw %struct.__mpz_struct, ptr %9, i32 0, i32 1
  %11 = load i32, ptr %10, align 4, !tbaa !15
  %12 = sext i32 %11 to i64
  store i64 %12, ptr %4, align 8, !tbaa !13
  call void @llvm.lifetime.start.p0(i64 8, ptr %5) #17
  %13 = load ptr, ptr %3, align 8, !tbaa !19
  %14 = getelementptr inbounds i64, ptr %13, i64 0
  %15 = load i64, ptr %14, align 8, !tbaa !13
  store i64 %15, ptr %5, align 8, !tbaa !13
  %16 = load i64, ptr %4, align 8, !tbaa !13
  %17 = icmp ne i64 %16, 0
  br i1 %17, label %18, label %20

18:                                               ; preds = %1
  %19 = load i64, ptr %5, align 8, !tbaa !13
  br label %21

20:                                               ; preds = %1
  br label %21

21:                                               ; preds = %20, %18
  %22 = phi i64 [ %19, %18 ], [ 0, %20 ]
  call void @llvm.lifetime.end.p0(i64 8, ptr %5) #17
  call void @llvm.lifetime.end.p0(i64 8, ptr %4) #17
  call void @llvm.lifetime.end.p0(i64 8, ptr %3) #17
  ret i64 %22
}

; Function Attrs: mustprogress nounwind uwtable
define noundef i32 @_ZNK4lean3mpz16get_unsigned_intEv(ptr noundef nonnull align 8 dereferenceable(16) %0) #0 align 2 {
  %2 = alloca ptr, align 8
  store ptr %0, ptr %2, align 8, !tbaa !3
  %3 = load ptr, ptr %2, align 8
  %4 = getelementptr inbounds nuw %"class.lean::mpz", ptr %3, i32 0, i32 0
  %5 = getelementptr inbounds [1 x %struct.__mpz_struct], ptr %4, i64 0, i64 0
  %6 = call i64 @__gmpz_get_ui(ptr noundef %5) #19
  %7 = trunc i64 %6 to i32
  ret i32 %7
}

; Function Attrs: mustprogress uwtable
define noundef zeroext i8 @_ZNK4lean3mpz4mod8Ev(ptr noundef nonnull align 8 dereferenceable(16) %0) #2 align 2 personality ptr @__gxx_personality_v0 {
  %2 = alloca ptr, align 8
  %3 = alloca %"class.lean::mpz", align 8
  %4 = alloca ptr, align 8
  %5 = alloca i32, align 4
  store ptr %0, ptr %2, align 8, !tbaa !3
  %6 = load ptr, ptr %2, align 8
  call void @llvm.lifetime.start.p0(i64 16, ptr %3) #17
  call void @_ZN4lean3mpzC1Ev(ptr noundef nonnull align 8 dereferenceable(16) %3)
  %7 = getelementptr inbounds nuw %"class.lean::mpz", ptr %3, i32 0, i32 0
  %8 = getelementptr inbounds [1 x %struct.__mpz_struct], ptr %7, i64 0, i64 0
  %9 = getelementptr inbounds nuw %"class.lean::mpz", ptr %6, i32 0, i32 0
  %10 = getelementptr inbounds [1 x %struct.__mpz_struct], ptr %9, i64 0, i64 0
  invoke void @__gmpz_fdiv_r_2exp(ptr noundef %8, ptr noundef %10, i64 noundef 8)
          to label %11 unwind label %14

11:                                               ; preds = %1
  %12 = call noundef i32 @_ZNK4lean3mpz16get_unsigned_intEv(ptr noundef nonnull align 8 dereferenceable(16) %3)
  %13 = trunc i32 %12 to i8
  call void @_ZN4lean3mpzD1Ev(ptr noundef nonnull align 8 dereferenceable(16) %3) #17
  call void @llvm.lifetime.end.p0(i64 16, ptr %3) #17
  ret i8 %13

14:                                               ; preds = %1
  %15 = landingpad { ptr, i32 }
          cleanup
  %16 = extractvalue { ptr, i32 } %15, 0
  store ptr %16, ptr %4, align 8
  %17 = extractvalue { ptr, i32 } %15, 1
  store i32 %17, ptr %5, align 4
  call void @_ZN4lean3mpzD1Ev(ptr noundef nonnull align 8 dereferenceable(16) %3) #17
  call void @llvm.lifetime.end.p0(i64 16, ptr %3) #17
  br label %18

18:                                               ; preds = %14
  %19 = load ptr, ptr %4, align 8
  %20 = load i32, ptr %5, align 4
  %21 = insertvalue { ptr, i32 } poison, ptr %19, 0
  %22 = insertvalue { ptr, i32 } %21, i32 %20, 1
  resume { ptr, i32 } %22
}